target datalayout = "e-m:e-p270:32:32-p271:32:32-p272:64:64-i64:64-i128:128-f80:128-n8:16:32:64-S128"
target triple = "x86_64-pc-linux-gnu"

%struct.ossl_ml_kem_key_st = type { ptr, ptr, ptr, ptr, ptr, ptr, ptr, ptr, ptr, ptr, ptr, ptr, ptr, i32, i32, [64 x i8], ptr }

; Function Attrs: nounwind uwtable
define internal i32 @single_keccak(ptr noundef %0, i64 noundef %1, ptr noundef %2, i64 noundef %3, ptr noundef %4) #0 {
  %6 = alloca i32, align 4
  %7 = alloca ptr, align 8
  %8 = alloca i64, align 8
  %9 = alloca ptr, align 8
  %10 = alloca i64, align 8
  %11 = alloca ptr, align 8
  %12 = alloca i32, align 4
  %13 = alloca i32, align 4
  store ptr %0, ptr %7, align 8, !tbaa !25
  store i64 %1, ptr %8, align 8, !tbaa !42
  store ptr %2, ptr %9, align 8, !tbaa !25
  store i64 %3, ptr %10, align 8, !tbaa !42
  store ptr %4, ptr %11, align 8, !tbaa !44
  call void @llvm.lifetime.start.p0(i64 4, ptr %12) #8
  %14 = load i64, ptr %8, align 8, !tbaa !42
  %15 = trunc i64 %14 to i32
  store i32 %15, ptr %12, align 4, !tbaa !23
  %16 = load ptr, ptr %11, align 8, !tbaa !44
  %17 = load ptr, ptr %9, align 8, !tbaa !25
  %18 = load i64, ptr %10, align 8, !tbaa !42
  %19 = call i32 @EVP_DigestUpdate(ptr noundef %16, ptr noundef %17, i64 noundef %18)
  %20 = icmp ne i32 %19, 0
  br i1 %20, label %22, label %21

21:                                               ; preds = %5
  store i32 0, ptr %6, align 4
  store i32 1, ptr %13, align 4
  br label %53

22:                                               ; preds = %5
  %23 = load ptr, ptr %11, align 8, !tbaa !44
  %24 = call ptr @EVP_MD_CTX_get0_md(ptr noundef %23)
  %25 = call i32 @EVP_MD_xof(ptr noundef %24)
  %26 = icmp ne i32 %25, 0
  br i1 %26, label %27, label %32

27:                                               ; preds = %22
  %28 = load ptr, ptr %11, align 8, !tbaa !44
  %29 = load ptr, ptr %7, align 8, !tbaa !25
  %30 = load i64, ptr %8, align 8, !tbaa !42
  %31 = call i32 @EVP_DigestFinalXOF(ptr noundef %28, ptr noundef %29, i64 noundef %30)
  store i32 %31, ptr %6, align 4
  store i32 1, ptr %13, align 4
  br label %53

32:                                               ; preds = %22
  %33 = load ptr, ptr %11, align 8, !tbaa !44
  %34 = load ptr, ptr %7, align 8, !tbaa !25
  %35 = call i32 @EVP_DigestFinal_ex(ptr noundef %33, ptr noundef %34, ptr noundef %12)
  %36 = icmp ne i32 %35, 0
  br i1 %36, label %37, label %50

37:                                               ; preds = %32
  %38 = load i32, ptr %12, align 4, !tbaa !23
  %39 = zext i32 %38 to i64
  %40 = load i64, ptr %8, align 8, !tbaa !42
  %41 = icmp eq i64 %39, %40
  %42 = zext i1 %41 to i32
  %43 = icmp ne i32 %42, 0
  %44 = xor i1 %43, true
  %45 = xor i1 %44, true
  %46 = zext i1 %45 to i32
  %47 = sext i32 %46 to i64
  %48 = call i64 @llvm.expect.i64(i64 %47, i64 1)
  %49 = icmp ne i64 %48, 0
  br label %50

50:                                               ; preds = %37, %32
  %51 = phi i1 [ false, %32 ], [ %49, %37 ]
  %52 = zext i1 %51 to i32
  store i32 %52, ptr %6, align 4
  store i32 1, ptr %13, align 4
  br label %53

53:                                               ; preds = %50, %27, %21
  call void @llvm.lifetime.end.p0(i64 4, ptr %12) #8
  %54 = load i32, ptr %6, align 4
  ret i32 %54
}

; Function Attrs: nounwind uwtable
define internal i32 @prf(ptr noundef %0, i64 noundef %1, ptr noundef %2, ptr noundef %3, ptr noundef %4) #0 {
  %6 = alloca ptr, align 8
  %7 = alloca i64, align 8
  %8 = alloca ptr, align 8
  %9 = alloca ptr, align 8
  %10 = alloca ptr, align 8
  store ptr %0, ptr %6, align 8, !tbaa !25
  store i64 %1, ptr %7, align 8, !tbaa !42
  store ptr %2, ptr %8, align 8, !tbaa !25
  store ptr %3, ptr %9, align 8, !tbaa !44
  store ptr %4, ptr %10, align 8, !tbaa !3
  %11 = load ptr, ptr %9, align 8, !tbaa !44
  %12 = load ptr, ptr %10, align 8, !tbaa !3
  %13 = getelementptr inbounds nuw %struct.ossl_ml_kem_key_st, ptr %12, i32 0, i32 3
  %14 = load ptr, ptr %13, align 8, !tbaa !31
  %15 = call i32 @EVP_DigestInit_ex(ptr noundef %11, ptr noundef %14, ptr noundef null)
  %16 = icmp ne i32 %15, 0
  br i1 %16, label %17, label %24

17:                                               ; preds = %5
  %18 = load ptr, ptr %6, align 8, !tbaa !25
  %19 = load i64, ptr %7, align 8, !tbaa !42
  %20 = load ptr, ptr %8, align 8, !tbaa !25
  %21 = load ptr, ptr %9, align 8, !tbaa !44
  %22 = call i32 @single_keccak(ptr noundef %18, i64 noundef %19, ptr noundef %20, i64 noundef 33, ptr noundef %21)
  %23 = icmp ne i32 %22, 0
  br label %24

24:                                               ; preds = %17, %5
  %25 = phi i1 [ false, %5 ], [ %23, %17 ]
  %26 = zext i1 %25 to i32
  ret i32 %26
}