; Function Attrs: nounwind uwtable
define internal fastcc range(i32 0, 2) i32 @prf(ptr noundef nonnull %0, i64 noundef range(i64 128, 193) %1, ptr noundef %2, ptr noundef %3, ptr %.24.val) unnamed_addr #0 {
  %5 = alloca i32, align 4
  %6 = tail call i32 @EVP_DigestInit_ex(ptr noundef %3, ptr noundef %.24.val, ptr noundef null) #13
  %.not = icmp eq i32 %6, 0
  br i1 %.not, label %22, label %7

7:                                                ; preds = %4
  call void @llvm.lifetime.start.p0(i64 4, ptr nonnull %5) #13
  %8 = trunc nuw nsw i64 %1 to i32
  store i32 %8, ptr %5, align 4, !tbaa !72
  %9 = tail call i32 @EVP_DigestUpdate(ptr noundef %3, ptr noundef %2, i64 noundef 33) #13
  %.not.i = icmp eq i32 %9, 0
  br i1 %.not.i, label %single_keccak.exit, label %10

10:                                               ; preds = %7
  %11 = tail call ptr @EVP_MD_CTX_get0_md(ptr noundef %3) #13
  %12 = tail call i32 @EVP_MD_xof(ptr noundef %11) #13
  %.not11.i = icmp eq i32 %12, 0
  br i1 %.not11.i, label %16, label %13

13:                                               ; preds = %10
  %14 = tail call i32 @EVP_DigestFinalXOF(ptr noundef %3, ptr noundef nonnull %0, i64 noundef range(i64 32, 193) %1) #13
  %15 = icmp ne i32 %14, 0
  br label %single_keccak.exit

16:                                               ; preds = %10
  %17 = call i32 @EVP_DigestFinal_ex(ptr noundef %3, ptr noundef nonnull %0, ptr noundef nonnull %5) #13
  %.not12.i = icmp ne i32 %17, 0
  %18 = load i32, ptr %5, align 4
  %19 = zext i32 %18 to i64
  %20 = icmp eq i64 %1, %19
  %narrow.i = select i1 %.not12.i, i1 %20, i1 false
  br label %single_keccak.exit

single_keccak.exit:                               ; preds = %7, %13, %16
  %.0.i = phi i1 [ %15, %13 ], [ %narrow.i, %16 ], [ false, %7 ]
  call void @llvm.lifetime.end.p0(i64 4, ptr nonnull %5) #13
  %21 = zext i1 %.0.i to i32
  br label %22

22:                                               ; preds = %single_keccak.exit, %4
  %23 = phi i32 [ 0, %4 ], [ %21, %single_keccak.exit ]
  ret i32 %23
}